; ModuleID = '31/1638.c'
source_filename = "31/1638.c"
target datalayout = "e-m:e-p270:32:32-p271:32:32-p272:64:64-i64:64-f80:128-n8:16:32:64-S128"
target triple = "x86_64-pc-linux-gnu"

%struct.student = type { [20 x i8], [20 x i8], i8, i32, float, [20 x i8], %struct.student* }

@.str = private unnamed_addr constant [14 x i8] c"%s%s %c%d%f%s\00", align 1
@.str.1 = private unnamed_addr constant [3 x i8] c"%s\00", align 1
@.str.2 = private unnamed_addr constant [4 x i8] c"end\00", align 1
@.str.3 = private unnamed_addr constant [12 x i8] c"%s %c%d%f%s\00", align 1
@.str.4 = private unnamed_addr constant [19 x i8] c"%s %s %c %d %g %s\0A\00", align 1

; Function Attrs: noinline nounwind uwtable
define dso_local i32 @main() #0 {
  %1 = alloca i32, align 4
  %2 = alloca %struct.student*, align 8
  %3 = alloca %struct.student*, align 8
  %4 = alloca %struct.student*, align 8
  %5 = alloca i32, align 4
  store i32 0, i32* %1, align 4
  store i32 0, i32* %5, align 4
  %6 = call noalias i8* @malloc(i64 100) #4
  %7 = bitcast i8* %6 to %struct.student*
  store %struct.student* %7, %struct.student** %4, align 8
  store %struct.student* %7, %struct.student** %3, align 8
  %8 = load %struct.student*, %struct.student** %3, align 8
  %9 = getelementptr inbounds %struct.student, %struct.student* %8, i32 0, i32 0
  %10 = getelementptr inbounds [20 x i8], [20 x i8]* %9, i64 0, i64 0
  %11 = load %struct.student*, %struct.student** %3, align 8
  %12 = getelementptr inbounds %struct.student, %struct.student* %11, i32 0, i32 1
  %13 = getelementptr inbounds [20 x i8], [20 x i8]* %12, i64 0, i64 0
  %14 = load %struct.student*, %struct.student** %3, align 8
  %15 = getelementptr inbounds %struct.student, %struct.student* %14, i32 0, i32 2
  %16 = load %struct.student*, %struct.student** %3, align 8
  %17 = getelementptr inbounds %struct.student, %struct.student* %16, i32 0, i32 3
  %18 = load %struct.student*, %struct.student** %3, align 8
  %19 = getelementptr inbounds %struct.student, %struct.student* %18, i32 0, i32 4
  %20 = load %struct.student*, %struct.student** %3, align 8
  %21 = getelementptr inbounds %struct.student, %struct.student* %20, i32 0, i32 5
  %22 = call i32 (i8*, ...) @__isoc99_scanf(i8* getelementptr inbounds ([14 x i8], [14 x i8]* @.str, i64 0, i64 0), i8* %10, i8* %13, i8* %15, i32* %17, float* %19, [20 x i8]* %21)
  %23 = load %struct.student*, %struct.student** %3, align 8
  %24 = getelementptr inbounds %struct.student, %struct.student* %23, i32 0, i32 6
  store %struct.student* null, %struct.student** %24, align 8
  store %struct.student* null, %struct.student** %2, align 8
  br label %25

25:                                               ; preds = %56, %0
  %26 = load i32, i32* %5, align 4
  %27 = icmp ne i32 %26, 1
  br i1 %27, label %28, label %57

28:                                               ; preds = %25
  %29 = call noalias i8* @malloc(i64 100) #4
  %30 = bitcast i8* %29 to %struct.student*
  store %struct.student* %30, %struct.student** %3, align 8
  %31 = load %struct.student*, %struct.student** %3, align 8
  %32 = getelementptr inbounds %struct.student, %struct.student* %31, i32 0, i32 0
  %33 = call i32 (i8*, ...) @__isoc99_scanf(i8* getelementptr inbounds ([3 x i8], [3 x i8]* @.str.1, i64 0, i64 0), [20 x i8]* %32)
  %34 = load %struct.student*, %struct.student** %3, align 8
  %35 = getelementptr inbounds %struct.student, %struct.student* %34, i32 0, i32 0
  %36 = getelementptr inbounds [20 x i8], [20 x i8]* %35, i64 0, i64 0
  %37 = call i32 @strcmp(i8* %36, i8* getelementptr inbounds ([4 x i8], [4 x i8]* @.str.2, i64 0, i64 0)) #5
  %38 = icmp ne i32 %37, 0
  br i1 %38, label %39, label %55

39:                                               ; preds = %28
  %40 = load %struct.student*, %struct.student** %3, align 8
  %41 = getelementptr inbounds %struct.student, %struct.student* %40, i32 0, i32 1
  %42 = load %struct.student*, %struct.student** %3, align 8
  %43 = getelementptr inbounds %struct.student, %struct.student* %42, i32 0, i32 2
  %44 = load %struct.student*, %struct.student** %3, align 8
  %45 = getelementptr inbounds %struct.student, %struct.student* %44, i32 0, i32 3
  %46 = load %struct.student*, %struct.student** %3, align 8
  %47 = getelementptr inbounds %struct.student, %struct.student* %46, i32 0, i32 4
  %48 = load %struct.student*, %struct.student** %3, align 8
  %49 = getelementptr inbounds %struct.student, %struct.student* %48, i32 0, i32 5
  %50 = call i32 (i8*, ...) @__isoc99_scanf(i8* getelementptr inbounds ([12 x i8], [12 x i8]* @.str.3, i64 0, i64 0), [20 x i8]* %41, i8* %43, i32* %45, float* %47, [20 x i8]* %49)
  %51 = load %struct.student*, %struct.student** %4, align 8
  %52 = load %struct.student*, %struct.student** %3, align 8
  %53 = getelementptr inbounds %struct.student, %struct.student* %52, i32 0, i32 6
  store %struct.student* %51, %struct.student** %53, align 8
  %54 = load %struct.student*, %struct.student** %3, align 8
  store %struct.student* %54, %struct.student** %4, align 8
  br label %56

55:                                               ; preds = %28
  store i32 1, i32* %5, align 4
  br label %56

56:                                               ; preds = %55, %39
  br label %25

57:                                               ; preds = %25
  %58 = load %struct.student*, %struct.student** %4, align 8
  store %struct.student* %58, %struct.student** %2, align 8
  %59 = load %struct.student*, %struct.student** %2, align 8
  store %struct.student* %59, %struct.student** %3, align 8
  br label %60

60:                                               ; preds = %63, %57
  %61 = load %struct.student*, %struct.student** %3, align 8
  %62 = icmp ne %struct.student* %61, null
  br i1 %62, label %63, label %88

63:                                               ; preds = %60
  %64 = load %struct.student*, %struct.student** %3, align 8
  %65 = getelementptr inbounds %struct.student, %struct.student* %64, i32 0, i32 0
  %66 = getelementptr inbounds [20 x i8], [20 x i8]* %65, i64 0, i64 0
  %67 = load %struct.student*, %struct.student** %3, align 8
  %68 = getelementptr inbounds %struct.student, %struct.student* %67, i32 0, i32 1
  %69 = getelementptr inbounds [20 x i8], [20 x i8]* %68, i64 0, i64 0
  %70 = load %struct.student*, %struct.student** %3, align 8
  %71 = getelementptr inbounds %struct.student, %struct.student* %70, i32 0, i32 2
  %72 = load i8, i8* %71, align 8
  %73 = sext i8 %72 to i32
  %74 = load %struct.student*, %struct.student** %3, align 8
  %75 = getelementptr inbounds %struct.student, %struct.student* %74, i32 0, i32 3
  %76 = load i32, i32* %75, align 4
  %77 = load %struct.student*, %struct.student** %3, align 8
  %78 = getelementptr inbounds %struct.student, %struct.student* %77, i32 0, i32 4
  %79 = load float, float* %78, align 8
  %80 = fpext float %79 to double
  %81 = load %struct.student*, %struct.student** %3, align 8
  %82 = getelementptr inbounds %struct.student, %struct.student* %81, i32 0, i32 5
  %83 = getelementptr inbounds [20 x i8], [20 x i8]* %82, i64 0, i64 0
  %84 = call i32 (i8*, ...) @printf(i8* getelementptr inbounds ([19 x i8], [19 x i8]* @.str.4, i64 0, i64 0), i8* %66, i8* %69, i32 %73, i32 %76, double %80, i8* %83)
  %85 = load %struct.student*, %struct.student** %3, align 8
  %86 = getelementptr inbounds %struct.student, %struct.student* %85, i32 0, i32 6
  %87 = load %struct.student*, %struct.student** %86, align 8
  store %struct.student* %87, %struct.student** %3, align 8
  br label %60

88:                                               ; preds = %60
  %89 = load i32, i32* %1, align 4
  ret i32 %89
}

; Function Attrs: nounwind
declare dso_local noalias i8* @malloc(i64) #1

declare dso_local i32 @__isoc99_scanf(i8*, ...) #2

; Function Attrs: nounwind readonly
declare dso_local i32 @strcmp(i8*, i8*) #3

declare dso_local i32 @printf(i8*, ...) #2


!llvm.module.flags = !{!0}
!llvm.ident = !{!1}

!0 = !{i32 1, !"wchar_size", i32 4}
!1 = !{!"clang version 10.0.0-4ubuntu1 "}
