; ModuleID = 'source-C-CXX/30/1638.c'
source_filename = "source-C-CXX/30/1638.c"
target datalayout = "e-m:e-p270:32:32-p271:32:32-p272:64:64-i64:64-f80:128-n8:16:32:64-S128"
target triple = "x86_64-pc-linux-gnu"

%struct.student = type { [20 x i8], [20 x i8], i8, i32, float, [20 x i8], %struct.student* }

@.str = private unnamed_addr constant [14 x i8] c"%s%s %c%d%f%s\00", align 1
@.str.1 = private unnamed_addr constant [3 x i8] c"%s\00", align 1
@.str.2 = private unnamed_addr constant [4 x i8] c"end\00", align 1
@.str.3 = private unnamed_addr constant [12 x i8] c"%s %c%d%f%s\00", align 1
@.str.4 = private unnamed_addr constant [19 x i8] c"%s %s %c %d %g %s\0A\00", align 1

; Function Attrs: nofree nounwind sspstrong uwtable
define dso_local i32 @main() local_unnamed_addr #0 {
  %1 = tail call noalias align 16 dereferenceable_or_null(100) i8* @malloc(i64 100) #4
  %2 = bitcast i8* %1 to %struct.student*
  %3 = getelementptr inbounds %struct.student, %struct.student* %2, i64 0, i32 0, i64 0
  %4 = getelementptr inbounds %struct.student, %struct.student* %2, i64 0, i32 1, i64 0
  %5 = getelementptr inbounds %struct.student, %struct.student* %2, i64 0, i32 2
  %6 = getelementptr inbounds %struct.student, %struct.student* %2, i64 0, i32 3
  %7 = getelementptr inbounds %struct.student, %struct.student* %2, i64 0, i32 4
  %8 = getelementptr inbounds %struct.student, %struct.student* %2, i64 0, i32 5
  %9 = tail call i32 (i8*, ...) @__isoc99_scanf(i8* getelementptr inbounds ([14 x i8], [14 x i8]* @.str, i64 0, i64 0), i8* %3, i8* nonnull %4, i8* nonnull %5, i32* nonnull %6, float* nonnull %7, [20 x i8]* nonnull %8)
  %10 = getelementptr inbounds %struct.student, %struct.student* %2, i64 0, i32 6
  store %struct.student* null, %struct.student** %10, align 8, !tbaa !5
  %11 = tail call noalias align 16 dereferenceable_or_null(100) i8* @malloc(i64 100) #4
  %12 = bitcast i8* %11 to %struct.student*
  %13 = getelementptr inbounds %struct.student, %struct.student* %12, i64 0, i32 0
  %14 = tail call i32 (i8*, ...) @__isoc99_scanf(i8* getelementptr inbounds ([3 x i8], [3 x i8]* @.str.1, i64 0, i64 0), [20 x i8]* %13)
  %15 = getelementptr inbounds %struct.student, %struct.student* %12, i64 0, i32 0, i64 0
  %16 = tail call i32 @strcmp(i8* noundef nonnull dereferenceable(1) %15, i8* noundef nonnull dereferenceable(4) getelementptr inbounds ([4 x i8], [4 x i8]* @.str.2, i64 0, i64 0)) #5
  %17 = icmp eq i32 %16, 0
  br i1 %17, label %18, label %21

18:                                               ; preds = %21, %0
  %19 = phi %struct.student* [ %2, %0 ], [ %22, %21 ]
  %20 = icmp eq %struct.student* %19, null
  br i1 %20, label %55, label %38

21:                                               ; preds = %0, %21
  %22 = phi %struct.student* [ %32, %21 ], [ %12, %0 ]
  %23 = phi %struct.student* [ %22, %21 ], [ %2, %0 ]
  %24 = getelementptr inbounds %struct.student, %struct.student* %22, i64 0, i32 1
  %25 = getelementptr inbounds %struct.student, %struct.student* %22, i64 0, i32 2
  %26 = getelementptr inbounds %struct.student, %struct.student* %22, i64 0, i32 3
  %27 = getelementptr inbounds %struct.student, %struct.student* %22, i64 0, i32 4
  %28 = getelementptr inbounds %struct.student, %struct.student* %22, i64 0, i32 5
  %29 = tail call i32 (i8*, ...) @__isoc99_scanf(i8* getelementptr inbounds ([12 x i8], [12 x i8]* @.str.3, i64 0, i64 0), [20 x i8]* nonnull %24, i8* nonnull %25, i32* nonnull %26, float* nonnull %27, [20 x i8]* nonnull %28)
  %30 = getelementptr inbounds %struct.student, %struct.student* %22, i64 0, i32 6
  store %struct.student* %23, %struct.student** %30, align 8, !tbaa !5
  %31 = tail call noalias align 16 dereferenceable_or_null(100) i8* @malloc(i64 100) #4
  %32 = bitcast i8* %31 to %struct.student*
  %33 = getelementptr inbounds %struct.student, %struct.student* %32, i64 0, i32 0
  %34 = tail call i32 (i8*, ...) @__isoc99_scanf(i8* getelementptr inbounds ([3 x i8], [3 x i8]* @.str.1, i64 0, i64 0), [20 x i8]* %33)
  %35 = getelementptr inbounds %struct.student, %struct.student* %32, i64 0, i32 0, i64 0
  %36 = tail call i32 @strcmp(i8* noundef nonnull dereferenceable(1) %35, i8* noundef nonnull dereferenceable(4) getelementptr inbounds ([4 x i8], [4 x i8]* @.str.2, i64 0, i64 0)) #5
  %37 = icmp eq i32 %36, 0
  br i1 %37, label %18, label %21

38:                                               ; preds = %18, %38
  %39 = phi %struct.student* [ %53, %38 ], [ %19, %18 ]
  %40 = getelementptr inbounds %struct.student, %struct.student* %39, i64 0, i32 0, i64 0
  %41 = getelementptr inbounds %struct.student, %struct.student* %39, i64 0, i32 1, i64 0
  %42 = getelementptr inbounds %struct.student, %struct.student* %39, i64 0, i32 2
  %43 = load i8, i8* %42, align 8, !tbaa !12
  %44 = sext i8 %43 to i32
  %45 = getelementptr inbounds %struct.student, %struct.student* %39, i64 0, i32 3
  %46 = load i32, i32* %45, align 4, !tbaa !13
  %47 = getelementptr inbounds %struct.student, %struct.student* %39, i64 0, i32 4
  %48 = load float, float* %47, align 8, !tbaa !14
  %49 = fpext float %48 to double
  %50 = getelementptr inbounds %struct.student, %struct.student* %39, i64 0, i32 5, i64 0
  %51 = tail call i32 (i8*, ...) @printf(i8* nonnull dereferenceable(1) getelementptr inbounds ([19 x i8], [19 x i8]* @.str.4, i64 0, i64 0), i8* nonnull %40, i8* nonnull %41, i32 %44, i32 %46, double %49, i8* nonnull %50)
  %52 = getelementptr inbounds %struct.student, %struct.student* %39, i64 0, i32 6
  %53 = load %struct.student*, %struct.student** %52, align 8, !tbaa !5
  %54 = icmp eq %struct.student* %53, null
  br i1 %54, label %55, label %38, !llvm.loop !15

55:                                               ; preds = %38, %18
  ret i32 0
}

; Function Attrs: inaccessiblememonly mustprogress nofree nounwind willreturn
declare noalias noundef align 16 i8* @malloc(i64 noundef) local_unnamed_addr #1

; Function Attrs: nofree nounwind
declare noundef i32 @__isoc99_scanf(i8* nocapture noundef readonly, ...) local_unnamed_addr #2

; Function Attrs: argmemonly mustprogress nofree nounwind readonly willreturn
declare i32 @strcmp(i8* nocapture, i8* nocapture) local_unnamed_addr #3

; Function Attrs: nofree nounwind
declare noundef i32 @printf(i8* nocapture noundef readonly, ...) local_unnamed_addr #2


!llvm.module.flags = !{!0, !1, !2, !3}
!llvm.ident = !{!4}

!0 = !{i32 1, !"wchar_size", i32 4}
!1 = !{i32 7, !"PIC Level", i32 2}
!2 = !{i32 7, !"PIE Level", i32 2}
!3 = !{i32 7, !"uwtable", i32 1}
!4 = !{!"clang version 13.0.0"}
!5 = !{!6, !11, i64 72}
!6 = !{!"student", !7, i64 0, !7, i64 20, !7, i64 40, !9, i64 44, !10, i64 48, !7, i64 52, !11, i64 72}
!7 = !{!"omnipotent char", !8, i64 0}
!8 = !{!"Simple C/C++ TBAA"}
!9 = !{!"int", !7, i64 0}
!10 = !{!"float", !7, i64 0}
!11 = !{!"any pointer", !7, i64 0}
!12 = !{!6, !7, i64 40}
!13 = !{!6, !9, i64 44}
!14 = !{!6, !10, i64 48}
!15 = distinct !{!15, !16}
!16 = !{!"llvm.loop.mustprogress"}
